; Function Attrs: uwtable
define noundef zeroext i1 @_ZN11OpenImageIO6v3_1_06Plugin5closeEPv(ptr noundef %0) local_unnamed_addr #6 personality ptr @__gxx_personality_v0 {
  %2 = tail call noundef i32 @pthread_mutex_lock(ptr noundef nonnull align 8 dereferenceable(40) @_ZN11OpenImageIO6v3_1_012_GLOBAL__N_112plugin_mutexE) #4
  %.not.i.i = icmp eq i32 %2, 0
  br i1 %.not.i.i, label %_ZNSt10lock_guardISt5mutexEC2ERS0_.exit, label %3

3:                                                ; preds = %1
  tail call void @_ZSt20__throw_system_errori(i32 noundef %2) #13
  unreachable

_ZNSt10lock_guardISt5mutexEC2ERS0_.exit:          ; preds = %1
  %4 = load i8, ptr @__tls_guard, align 1
  %5 = icmp eq i8 %4, 0
  br i1 %5, label %6, label %_ZTWN11OpenImageIO6v3_1_012_GLOBAL__N_110last_errorB5cxx11E.exit, !prof !3

6:                                                ; preds = %_ZNSt10lock_guardISt5mutexEC2ERS0_.exit
  store i8 1, ptr @__tls_guard, align 1
  %7 = tail call ptr @llvm.invariant.start.p0(i64 1, ptr nonnull @__tls_guard)
  store ptr getelementptr inbounds nuw (i8, ptr @_ZN11OpenImageIO6v3_1_012_GLOBAL__N_110last_errorB5cxx11E, i64 16), ptr @_ZN11OpenImageIO6v3_1_012_GLOBAL__N_110last_errorB5cxx11E, align 8, !tbaa !4
  store i64 0, ptr getelementptr inbounds nuw (i8, ptr @_ZN11OpenImageIO6v3_1_012_GLOBAL__N_110last_errorB5cxx11E, i64 8), align 8, !tbaa !10
  store i8 0, ptr getelementptr inbounds nuw (i8, ptr @_ZN11OpenImageIO6v3_1_012_GLOBAL__N_110last_errorB5cxx11E, i64 16), align 8, !tbaa !13
  %8 = tail call i32 @__cxa_thread_atexit(ptr nonnull @_ZNSt7__cxx1112basic_stringIcSt11char_traitsIcESaIcEED2Ev, ptr nonnull @_ZN11OpenImageIO6v3_1_012_GLOBAL__N_110last_errorB5cxx11E, ptr nonnull @__dso_handle) #4
  br label %_ZTWN11OpenImageIO6v3_1_012_GLOBAL__N_110last_errorB5cxx11E.exit

_ZTWN11OpenImageIO6v3_1_012_GLOBAL__N_110last_errorB5cxx11E.exit: ; preds = %_ZNSt10lock_guardISt5mutexEC2ERS0_.exit, %6
  %9 = tail call noundef nonnull align 8 ptr @llvm.threadlocal.address.p0(ptr align 8 @_ZN11OpenImageIO6v3_1_012_GLOBAL__N_110last_errorB5cxx11E)
  %10 = getelementptr inbounds nuw i8, ptr %9, i64 8
  store i64 0, ptr %10, align 8, !tbaa !10
  %11 = load ptr, ptr %9, align 8, !tbaa !14
  store i8 0, ptr %11, align 1, !tbaa !13
  %12 = tail call i32 @dlclose(ptr noundef %0) #4
  %.not = icmp eq i32 %12, 0
  br i1 %.not, label %_ZNSt7__cxx1112basic_stringIcSt11char_traitsIcESaIcEEaSEPKc.exit, label %13

13:                                               ; preds = %_ZTWN11OpenImageIO6v3_1_012_GLOBAL__N_110last_errorB5cxx11E.exit
  %14 = tail call ptr @dlerror() #4
  %15 = load i8, ptr @__tls_guard, align 1
  %16 = icmp eq i8 %15, 0
  br i1 %16, label %17, label %_ZTWN11OpenImageIO6v3_1_012_GLOBAL__N_110last_errorB5cxx11E.exit3, !prof !3

17:                                               ; preds = %13
  store i8 1, ptr @__tls_guard, align 1
  %18 = tail call ptr @llvm.invariant.start.p0(i64 1, ptr nonnull @__tls_guard)
  store ptr getelementptr inbounds nuw (i8, ptr @_ZN11OpenImageIO6v3_1_012_GLOBAL__N_110last_errorB5cxx11E, i64 16), ptr @_ZN11OpenImageIO6v3_1_012_GLOBAL__N_110last_errorB5cxx11E, align 8, !tbaa !4
  store i64 0, ptr getelementptr inbounds nuw (i8, ptr @_ZN11OpenImageIO6v3_1_012_GLOBAL__N_110last_errorB5cxx11E, i64 8), align 8, !tbaa !10
  store i8 0, ptr getelementptr inbounds nuw (i8, ptr @_ZN11OpenImageIO6v3_1_012_GLOBAL__N_110last_errorB5cxx11E, i64 16), align 8, !tbaa !13
  %19 = tail call i32 @__cxa_thread_atexit(ptr nonnull @_ZNSt7__cxx1112basic_stringIcSt11char_traitsIcESaIcEED2Ev, ptr nonnull @_ZN11OpenImageIO6v3_1_012_GLOBAL__N_110last_errorB5cxx11E, ptr nonnull @__dso_handle) #4
  br label %_ZTWN11OpenImageIO6v3_1_012_GLOBAL__N_110last_errorB5cxx11E.exit3

_ZTWN11OpenImageIO6v3_1_012_GLOBAL__N_110last_errorB5cxx11E.exit3: ; preds = %13, %17
  %20 = load i64, ptr %10, align 8, !tbaa !10
  %21 = tail call noundef i64 @strlen(ptr noundef nonnull dereferenceable(1) %14) #4
  %22 = invoke noundef nonnull align 8 dereferenceable(32) ptr @_ZNSt7__cxx1112basic_stringIcSt11char_traitsIcESaIcEE10_M_replaceEmmPKcm(ptr noundef nonnull align 8 dereferenceable(32) %9, i64 noundef 0, i64 noundef %20, ptr noundef nonnull %14, i64 noundef %21)
          to label %_ZNSt7__cxx1112basic_stringIcSt11char_traitsIcESaIcEEaSEPKc.exit unwind label %23

23:                                               ; preds = %_ZTWN11OpenImageIO6v3_1_012_GLOBAL__N_110last_errorB5cxx11E.exit3
  %24 = landingpad { ptr, i32 }
          cleanup
  %25 = tail call noundef i32 @pthread_mutex_unlock(ptr noundef nonnull align 8 dereferenceable(40) @_ZN11OpenImageIO6v3_1_012_GLOBAL__N_112plugin_mutexE) #4
  resume { ptr, i32 } %24

_ZNSt7__cxx1112basic_stringIcSt11char_traitsIcESaIcEEaSEPKc.exit: ; preds = %_ZTWN11OpenImageIO6v3_1_012_GLOBAL__N_110last_errorB5cxx11E.exit3, %_ZTWN11OpenImageIO6v3_1_012_GLOBAL__N_110last_errorB5cxx11E.exit
  %26 = tail call noundef i32 @pthread_mutex_unlock(ptr noundef nonnull align 8 dereferenceable(40) @_ZN11OpenImageIO6v3_1_012_GLOBAL__N_112plugin_mutexE) #4
  ret i1 %.not
}